; Function Attrs: nounwind uwtable
define void @Gia_CollectSuper(ptr noundef readonly captures(none) %0, ptr noundef %1, ptr noundef captures(none) initializes((4, 8)) %2) local_unnamed_addr #0 {
  %4 = getelementptr inbounds nuw i8, ptr %2, i64 4
  store i32 0, ptr %4, align 4, !tbaa !28
  %.val13 = load i64, ptr %1, align 4
  %5 = and i64 %.val13, 2147483648
  %.not.i = icmp ne i64 %5, 0
  %6 = and i64 %.val13, 536870911
  %7 = icmp eq i64 %6, 536870911
  %narrow.i.not = or i1 %.not.i, %7
  %8 = getelementptr i8, ptr %0, i64 32
  %.val = load ptr, ptr %8, align 8, !tbaa !3
  br i1 %narrow.i.not, label %._crit_edge.i29, label %._crit_edge.i

._crit_edge.i:                                    ; preds = %3
  %9 = sub nsw i64 0, %6
  %10 = getelementptr inbounds %struct.Gia_Obj_t_, ptr %1, i64 %9
  %11 = ptrtoint ptr %10 to i64
  %12 = ptrtoint ptr %.val to i64
  %13 = sub i64 %11, %12
  %14 = sdiv exact i64 %13, 12
  %15 = trunc i64 %14 to i32
  %16 = load i32, ptr %2, align 8, !tbaa !33
  %17 = icmp eq i32 %16, 0
  %18 = getelementptr inbounds nuw i8, ptr %2, i64 8
  %19 = load ptr, ptr %18, align 8, !tbaa !29
  br i1 %17, label %20, label %Vec_IntPushUnique.exit

20:                                               ; preds = %._crit_edge.i
  %.not9.i.i.i = icmp eq ptr %19, null
  br i1 %.not9.i.i.i, label %23, label %21

21:                                               ; preds = %20
  %22 = tail call dereferenceable_or_null(64) ptr @realloc(ptr noundef nonnull %19, i64 noundef 64) #15
  %.pre.pre = load i32, ptr %4, align 4, !tbaa !28
  %.val11.pre.pre = load ptr, ptr %8, align 8, !tbaa !3
  %.pre51 = ptrtoint ptr %.val11.pre.pre to i64
  br label %Vec_IntGrow.exit.i.i

23:                                               ; preds = %20
  %24 = tail call noalias dereferenceable_or_null(64) ptr @malloc(i64 noundef 64) #16
  br label %Vec_IntGrow.exit.i.i

Vec_IntGrow.exit.i.i:                             ; preds = %23, %21
  %.pre50.pre-phi = phi i64 [ %12, %23 ], [ %.pre51, %21 ]
  %.pre = phi i32 [ 0, %23 ], [ %.pre.pre, %21 ]
  %25 = phi ptr [ %24, %23 ], [ %22, %21 ]
  store ptr %25, ptr %18, align 8, !tbaa !29
  store i32 16, ptr %2, align 8, !tbaa !33
  br label %Vec_IntPushUnique.exit

Vec_IntPushUnique.exit:                           ; preds = %._crit_edge.i, %Vec_IntGrow.exit.i.i
  %.pre-phi = phi i64 [ %.pre50.pre-phi, %Vec_IntGrow.exit.i.i ], [ %12, %._crit_edge.i ]
  %26 = phi i32 [ %.pre, %Vec_IntGrow.exit.i.i ], [ 0, %._crit_edge.i ]
  %27 = phi ptr [ %25, %Vec_IntGrow.exit.i.i ], [ %19, %._crit_edge.i ]
  %28 = add nsw i32 %26, 1
  store i32 %28, ptr %4, align 4, !tbaa !28
  %29 = sext i32 %26 to i64
  %30 = getelementptr inbounds i32, ptr %27, i64 %29
  store i32 %15, ptr %30, align 4, !tbaa !32
  %31 = load i64, ptr %1, align 4
  %32 = lshr i64 %31, 32
  %33 = and i64 %32, 536870911
  %34 = sub nsw i64 0, %33
  %35 = getelementptr inbounds %struct.Gia_Obj_t_, ptr %1, i64 %34
  %36 = ptrtoint ptr %35 to i64
  %37 = sub i64 %36, %.pre-phi
  %38 = sdiv exact i64 %37, 12
  %39 = trunc i64 %38 to i32
  %40 = load i32, ptr %4, align 4, !tbaa !28
  %41 = icmp sgt i32 %40, 0
  br i1 %41, label %.lr.ph.i23, label %._crit_edge.i14

.lr.ph.i23:                                       ; preds = %Vec_IntPushUnique.exit
  %wide.trip.count.i24 = zext nneg i32 %40 to i64
  br label %43

42:                                               ; preds = %43
  %indvars.iv.next.i26 = add nuw nsw i64 %indvars.iv.i25, 1
  %exitcond.not.i27 = icmp eq i64 %indvars.iv.next.i26, %wide.trip.count.i24
  br i1 %exitcond.not.i27, label %._crit_edge.i14, label %43, !llvm.loop !30

43:                                               ; preds = %42, %.lr.ph.i23
  %indvars.iv.i25 = phi i64 [ 0, %.lr.ph.i23 ], [ %indvars.iv.next.i26, %42 ]
  %44 = getelementptr inbounds nuw i32, ptr %27, i64 %indvars.iv.i25
  %45 = load i32, ptr %44, align 4, !tbaa !32
  %46 = icmp eq i32 %45, %39
  br i1 %46, label %Vec_IntPushUnique.exit28, label %42

._crit_edge.i14:                                  ; preds = %42, %Vec_IntPushUnique.exit
  %47 = load i32, ptr %2, align 8, !tbaa !33
  %48 = icmp eq i32 %40, %47
  br i1 %48, label %49, label %Vec_IntPush.exit.i18

49:                                               ; preds = %._crit_edge.i14
  %50 = icmp slt i32 %40, 16
  br i1 %50, label %Vec_IntGrow.exit.i.i22, label %53

Vec_IntGrow.exit.i.i22:                           ; preds = %49
  %51 = getelementptr inbounds nuw i8, ptr %2, i64 8
  %52 = tail call dereferenceable_or_null(64) ptr @realloc(ptr noundef nonnull %27, i64 noundef 64) #15
  store ptr %52, ptr %51, align 8, !tbaa !29
  br label %Vec_IntPush.exit.i18.sink.split

53:                                               ; preds = %49
  %54 = shl nuw nsw i32 %40, 1
  %55 = getelementptr inbounds nuw i8, ptr %2, i64 8
  %56 = zext nneg i32 %54 to i64
  %57 = shl nuw nsw i64 %56, 2
  %58 = tail call ptr @realloc(ptr noundef nonnull %27, i64 noundef %57) #15
  store ptr %58, ptr %55, align 8, !tbaa !29
  br label %Vec_IntPush.exit.i18.sink.split

Vec_IntPush.exit.i18.sink.split:                  ; preds = %Vec_IntGrow.exit.i.i22, %53
  %.sink = phi i32 [ %54, %53 ], [ 16, %Vec_IntGrow.exit.i.i22 ]
  %.ph = phi ptr [ %58, %53 ], [ %52, %Vec_IntGrow.exit.i.i22 ]
  store i32 %.sink, ptr %2, align 8, !tbaa !33
  br label %Vec_IntPush.exit.i18

Vec_IntPush.exit.i18:                             ; preds = %Vec_IntPush.exit.i18.sink.split, %._crit_edge.i14
  %59 = phi ptr [ %27, %._crit_edge.i14 ], [ %.ph, %Vec_IntPush.exit.i18.sink.split ]
  %60 = load i32, ptr %4, align 4, !tbaa !28
  br label %Vec_IntPushUnique.exit28.sink.split

._crit_edge.i29:                                  ; preds = %3
  %61 = ptrtoint ptr %1 to i64
  %62 = and i64 %61, -2
  %63 = ptrtoint ptr %.val to i64
  %64 = sub i64 %62, %63
  %65 = sdiv exact i64 %64, 12
  %66 = trunc i64 %65 to i32
  %67 = load i32, ptr %2, align 8, !tbaa !33
  %68 = icmp eq i32 %67, 0
  %69 = getelementptr inbounds nuw i8, ptr %2, i64 8
  %70 = load ptr, ptr %69, align 8, !tbaa !29
  br i1 %68, label %71, label %Vec_IntPushUnique.exit28.sink.split

71:                                               ; preds = %._crit_edge.i29
  %.not9.i.i.i36 = icmp eq ptr %70, null
  br i1 %.not9.i.i.i36, label %74, label %72

72:                                               ; preds = %71
  %73 = tail call dereferenceable_or_null(64) ptr @realloc(ptr noundef nonnull %70, i64 noundef 64) #15
  %.pre46.pre = load i32, ptr %4, align 4, !tbaa !28
  br label %Vec_IntGrow.exit.i.i37

74:                                               ; preds = %71
  %75 = tail call noalias dereferenceable_or_null(64) ptr @malloc(i64 noundef 64) #16
  br label %Vec_IntGrow.exit.i.i37

Vec_IntGrow.exit.i.i37:                           ; preds = %74, %72
  %.pre46 = phi i32 [ %.pre46.pre, %72 ], [ 0, %74 ]
  %76 = phi ptr [ %73, %72 ], [ %75, %74 ]
  store ptr %76, ptr %69, align 8, !tbaa !29
  store i32 16, ptr %2, align 8, !tbaa !33
  br label %Vec_IntPushUnique.exit28.sink.split

Vec_IntPushUnique.exit28.sink.split:              ; preds = %Vec_IntGrow.exit.i.i37, %._crit_edge.i29, %Vec_IntPush.exit.i18
  %.sink58 = phi i32 [ %60, %Vec_IntPush.exit.i18 ], [ %.pre46, %Vec_IntGrow.exit.i.i37 ], [ 0, %._crit_edge.i29 ]
  %.sink54 = phi ptr [ %59, %Vec_IntPush.exit.i18 ], [ %76, %Vec_IntGrow.exit.i.i37 ], [ %70, %._crit_edge.i29 ]
  %.sink52 = phi i32 [ %39, %Vec_IntPush.exit.i18 ], [ %66, %Vec_IntGrow.exit.i.i37 ], [ %66, %._crit_edge.i29 ]
  %77 = add nsw i32 %.sink58, 1
  store i32 %77, ptr %4, align 4, !tbaa !28
  %78 = sext i32 %.sink58 to i64
  %79 = getelementptr inbounds i32, ptr %.sink54, i64 %78
  store i32 %.sink52, ptr %79, align 4, !tbaa !32
  br label %Vec_IntPushUnique.exit28

Vec_IntPushUnique.exit28:                         ; preds = %43, %Vec_IntPushUnique.exit28.sink.split
  ret void
}